target datalayout = "e-m:e-p270:32:32-p271:32:32-p272:64:64-i64:64-i128:128-f80:128-n8:16:32:64-S128"
target triple = "x86_64-pc-linux-gnu"

%struct._exp_pdu_data_t = type { i32, ptr, i32, i32, ptr }

@.str.857 = private unnamed_addr constant [4 x i8] c"sip\00", align 1
@exported_pdu_tap = internal global i32 -1, align 4

; Function Attrs: null_pointer_is_valid sspstrong uwtable
define internal void @export_sip_pdu(ptr noundef %0, ptr noundef %1) #0 {
  %3 = alloca ptr, align 8
  %4 = alloca ptr, align 8
  %5 = alloca ptr, align 8
  store ptr %0, ptr %3, align 8
  store ptr %1, ptr %4, align 8
  call void @llvm.lifetime.start.p0(i64 8, ptr %5) #18
  %6 = load ptr, ptr %3, align 8
  %7 = call ptr @export_pdu_create_common_tags(ptr noundef %6, ptr noundef @.str.857, i16 noundef zeroext 12)
  store ptr %7, ptr %5, align 8
  %8 = load ptr, ptr %4, align 8
  %9 = call i32 @tvb_captured_length(ptr noundef %8)
  %10 = load ptr, ptr %5, align 8
  %11 = getelementptr inbounds nuw %struct._exp_pdu_data_t, ptr %10, i32 0, i32 2
  store i32 %9, ptr %11, align 8
  %12 = load ptr, ptr %4, align 8
  %13 = call i32 @tvb_reported_length(ptr noundef %12)
  %14 = load ptr, ptr %5, align 8
  %15 = getelementptr inbounds nuw %struct._exp_pdu_data_t, ptr %14, i32 0, i32 3
  store i32 %13, ptr %15, align 4
  %16 = load ptr, ptr %4, align 8
  %17 = load ptr, ptr %5, align 8
  %18 = getelementptr inbounds nuw %struct._exp_pdu_data_t, ptr %17, i32 0, i32 4
  store ptr %16, ptr %18, align 8
  %19 = load i32, ptr @exported_pdu_tap, align 4
  %20 = load ptr, ptr %3, align 8
  %21 = load ptr, ptr %5, align 8
  call void @tap_queue_packet(i32 noundef %19, ptr noundef %20, ptr noundef %21)
  call void @llvm.lifetime.end.p0(i64 8, ptr %5) #18
  ret void
}