; Function Attrs: null_pointer_is_valid sspstrong uwtable
define internal fastcc void @export_sip_pdu(ptr noundef %0, ptr noundef %1) unnamed_addr #0 {
  %3 = tail call ptr @export_pdu_create_common_tags(ptr noundef %0, ptr noundef nonnull @.str.857, i16 noundef zeroext 12)
  %4 = tail call i32 @tvb_captured_length(ptr noundef %1)
  %5 = getelementptr inbounds nuw i8, ptr %3, i64 16
  store i32 %4, ptr %5, align 8
  %6 = tail call i32 @tvb_reported_length(ptr noundef %1)
  %7 = getelementptr inbounds nuw i8, ptr %3, i64 20
  store i32 %6, ptr %7, align 4
  %8 = getelementptr inbounds nuw i8, ptr %3, i64 24
  store ptr %1, ptr %8, align 8
  %9 = load i32, ptr @exported_pdu_tap, align 4
  tail call void @tap_queue_packet(i32 noundef %9, ptr noundef %0, ptr noundef %3)
  ret void
}